target datalayout = "e-m:e-p270:32:32-p271:32:32-p272:64:64-i64:64-i128:128-f80:128-n8:16:32:64-S128"
target triple = "x86_64-pc-linux-gnu"

%struct.reftable_block = type { ptr, i64, %struct.reftable_block_source }
%struct.reftable_block_source = type { ptr, ptr }
%struct.reftable_block_source_vtable = type { ptr, ptr, ptr, ptr }

; Function Attrs: nounwind uwtable
define dso_local void @reftable_block_done(ptr noundef %0) #0 {
  %2 = alloca ptr, align 8
  %3 = alloca %struct.reftable_block_source, align 8
  store ptr %0, ptr %2, align 8, !tbaa !63
  call void @llvm.lifetime.start.p0(i64 16, ptr %3) #10
  %4 = load ptr, ptr %2, align 8, !tbaa !63
  %5 = getelementptr inbounds nuw %struct.reftable_block, ptr %4, i32 0, i32 2
  call void @llvm.memcpy.p0.p0.i64(ptr align 8 %3, ptr align 8 %5, i64 16, i1 false), !tbaa.struct !83
  %6 = load ptr, ptr %2, align 8, !tbaa !63
  %7 = icmp ne ptr %6, null
  br i1 %7, label %8, label %20

8:                                                ; preds = %1
  %9 = getelementptr inbounds nuw %struct.reftable_block_source, ptr %3, i32 0, i32 0
  %10 = load ptr, ptr %9, align 8, !tbaa !84
  %11 = icmp ne ptr %10, null
  br i1 %11, label %12, label %20

12:                                               ; preds = %8
  %13 = getelementptr inbounds nuw %struct.reftable_block_source, ptr %3, i32 0, i32 0
  %14 = load ptr, ptr %13, align 8, !tbaa !84
  %15 = getelementptr inbounds nuw %struct.reftable_block_source_vtable, ptr %14, i32 0, i32 2
  %16 = load ptr, ptr %15, align 8, !tbaa !85
  %17 = getelementptr inbounds nuw %struct.reftable_block_source, ptr %3, i32 0, i32 1
  %18 = load ptr, ptr %17, align 8, !tbaa !87
  %19 = load ptr, ptr %2, align 8, !tbaa !63
  call void %16(ptr noundef %18, ptr noundef %19)
  br label %20

20:                                               ; preds = %12, %8, %1
  %21 = load ptr, ptr %2, align 8, !tbaa !63
  %22 = getelementptr inbounds nuw %struct.reftable_block, ptr %21, i32 0, i32 0
  store ptr null, ptr %22, align 8, !tbaa !65
  %23 = load ptr, ptr %2, align 8, !tbaa !63
  %24 = getelementptr inbounds nuw %struct.reftable_block, ptr %23, i32 0, i32 1
  store i64 0, ptr %24, align 8, !tbaa !70
  %25 = load ptr, ptr %2, align 8, !tbaa !63
  %26 = getelementptr inbounds nuw %struct.reftable_block, ptr %25, i32 0, i32 2
  %27 = getelementptr inbounds nuw %struct.reftable_block_source, ptr %26, i32 0, i32 0
  store ptr null, ptr %27, align 8, !tbaa !88
  %28 = load ptr, ptr %2, align 8, !tbaa !63
  %29 = getelementptr inbounds nuw %struct.reftable_block, ptr %28, i32 0, i32 2
  %30 = getelementptr inbounds nuw %struct.reftable_block_source, ptr %29, i32 0, i32 1
  store ptr null, ptr %30, align 8, !tbaa !89
  call void @llvm.lifetime.end.p0(i64 16, ptr %3) #10
  ret void
}