; Function Attrs: nounwind uwtable
define dso_local void @reftable_block_done(ptr noundef %0) local_unnamed_addr #2 {
  %2 = getelementptr inbounds nuw i8, ptr %0, i64 16
  %.sroa.0.0.copyload = load ptr, ptr %2, align 8, !tbaa !50
  %.not = icmp eq ptr %.sroa.0.0.copyload, null
  br i1 %.not, label %6, label %3

3:                                                ; preds = %1
  %.sroa.5.0..sroa_idx = getelementptr inbounds nuw i8, ptr %0, i64 24
  %.sroa.5.0.copyload = load ptr, ptr %.sroa.5.0..sroa_idx, align 8, !tbaa !51
  %4 = getelementptr inbounds nuw i8, ptr %.sroa.0.0.copyload, i64 16
  %5 = load ptr, ptr %4, align 8, !tbaa !52
  tail call void %5(ptr noundef %.sroa.5.0.copyload, ptr noundef nonnull %0) #11
  br label %6

6:                                                ; preds = %3, %1
  tail call void @llvm.memset.p0.i64(ptr noundef nonnull align 8 dereferenceable(32) %0, i8 0, i64 32, i1 false)
  ret void
}